target datalayout = "e-m:e-p270:32:32-p271:32:32-p272:64:64-i64:64-i128:128-f80:128-n8:16:32:64-S128"
target triple = "x86_64-pc-linux-gnu"

%struct.avifRWData = type { ptr, i64 }
%struct.avifEncoderItem = type { i16, [4 x i8], ptr, ptr, %struct.avifRWData, %struct.avifCodecConfigurationBox, i32, i32, i32, ptr, i64, ptr, i64, %struct.avifOffsetFixupArray, i16, ptr, i32, i32, i32, i32, i32, i16, %struct.ipmaArray }
%struct.avifCodecConfigurationBox = type { i8, i8, i8, i8, i8, i8, i8, i8, i8 }
%struct.avifOffsetFixupArray = type { ptr, i32, i32, i32 }
%struct.ipmaArray = type { [16 x i8], [16 x i32], i8 }
%struct.avifOffsetFixup = type { i64 }

; Function Attrs: nounwind uwtable
define internal i32 @avifEncoderItemAddMdatFixup(ptr noundef %0, ptr noundef %1) #0 {
  %3 = alloca i32, align 4
  %4 = alloca ptr, align 8
  %5 = alloca ptr, align 8
  %6 = alloca ptr, align 8
  store ptr %0, ptr %4, align 8
  store ptr %1, ptr %5, align 8
  %7 = load ptr, ptr %4, align 8
  %8 = getelementptr inbounds nuw %struct.avifEncoderItem, ptr %7, i32 0, i32 13
  %9 = call ptr @avifArrayPush(ptr noundef %8)
  store ptr %9, ptr %6, align 8
  br label %10

10:                                               ; preds = %2
  %11 = load ptr, ptr %6, align 8
  %12 = icmp ne ptr %11, null
  br i1 %12, label %14, label %13

13:                                               ; preds = %10
  store i32 26, ptr %3, align 4
  br label %20

14:                                               ; preds = %10
  br label %15

15:                                               ; preds = %14
  %16 = load ptr, ptr %5, align 8
  %17 = call i64 @avifRWStreamOffset(ptr noundef %16)
  %18 = load ptr, ptr %6, align 8
  %19 = getelementptr inbounds nuw %struct.avifOffsetFixup, ptr %18, i32 0, i32 0
  store i64 %17, ptr %19, align 8
  store i32 0, ptr %3, align 4
  br label %20

20:                                               ; preds = %15, %13
  %21 = load i32, ptr %3, align 4
  ret i32 %21
}