; Function Attrs: nounwind uwtable
define internal fastcc range(i32 0, 27) i32 @avifEncoderItemAddMdatFixup(ptr noundef %0, ptr noundef %1) unnamed_addr #1 {
  %3 = getelementptr inbounds nuw i8, ptr %0, i64 96
  %4 = tail call ptr @avifArrayPush(ptr noundef nonnull %3) #13
  %.not = icmp eq ptr %4, null
  br i1 %.not, label %7, label %5

5:                                                ; preds = %2
  %6 = tail call i64 @avifRWStreamOffset(ptr noundef %1) #13
  store i64 %6, ptr %4, align 8
  br label %7

7:                                                ; preds = %2, %5
  %.0 = phi i32 [ 0, %5 ], [ 26, %2 ]
  ret i32 %.0
}